target datalayout = "e-m:e-p270:32:32-p271:32:32-p272:64:64-i64:64-i128:128-f80:128-n8:16:32:64-S128"
target triple = "x86_64-pc-linux-gnu"

%struct.ZSTD_customMem = type { ptr, ptr, ptr }
%struct.POOL_ctx_s = type { %struct.ZSTD_customMem, ptr, i64, i64, ptr, i64, i64, i64, i64, i32, %union.pthread_mutex_t, %union.pthread_cond_t, %union.pthread_cond_t, i32 }
%union.pthread_mutex_t = type { %struct.__pthread_mutex_s }
%struct.__pthread_mutex_s = type { i32, i32, i32, i32, i32, i16, i16, %struct.__pthread_internal_list }
%struct.__pthread_internal_list = type { ptr, ptr }
%union.pthread_cond_t = type { %struct.__pthread_cond_s }
%struct.__pthread_cond_s = type { %union.__atomic_wide_counter, %union.__atomic_wide_counter, [2 x i32], [2 x i32], i32, i32, [2 x i32] }
%union.__atomic_wide_counter = type { i64 }

; Function Attrs: nounwind uwtable
define void @POOL_joinJobs(ptr noundef %0) #0 {
  %2 = alloca ptr, align 8
  store ptr %0, ptr %2, align 8, !tbaa !7
  %3 = load ptr, ptr %2, align 8, !tbaa !7
  %4 = getelementptr inbounds nuw %struct.POOL_ctx_s, ptr %3, i32 0, i32 10
  %5 = call i32 @pthread_mutex_lock(ptr noundef %4) #8
  br label %6

6:                                                ; preds = %18, %1
  %7 = load ptr, ptr %2, align 8, !tbaa !7
  %8 = getelementptr inbounds nuw %struct.POOL_ctx_s, ptr %7, i32 0, i32 9
  %9 = load i32, ptr %8, align 8, !tbaa !20
  %10 = icmp ne i32 %9, 0
  br i1 %10, label %11, label %16

11:                                               ; preds = %6
  %12 = load ptr, ptr %2, align 8, !tbaa !7
  %13 = getelementptr inbounds nuw %struct.POOL_ctx_s, ptr %12, i32 0, i32 8
  %14 = load i64, ptr %13, align 8, !tbaa !19
  %15 = icmp ugt i64 %14, 0
  br label %16

16:                                               ; preds = %11, %6
  %17 = phi i1 [ true, %6 ], [ %15, %11 ]
  br i1 %17, label %18, label %24

18:                                               ; preds = %16
  %19 = load ptr, ptr %2, align 8, !tbaa !7
  %20 = getelementptr inbounds nuw %struct.POOL_ctx_s, ptr %19, i32 0, i32 11
  %21 = load ptr, ptr %2, align 8, !tbaa !7
  %22 = getelementptr inbounds nuw %struct.POOL_ctx_s, ptr %21, i32 0, i32 10
  %23 = call i32 @pthread_cond_wait(ptr noundef %20, ptr noundef %22)
  br label %6, !llvm.loop !39

24:                                               ; preds = %16
  %25 = load ptr, ptr %2, align 8, !tbaa !7
  %26 = getelementptr inbounds nuw %struct.POOL_ctx_s, ptr %25, i32 0, i32 10
  %27 = call i32 @pthread_mutex_unlock(ptr noundef %26) #8
  ret void
}