; Function Attrs: nounwind uwtable
define void @POOL_joinJobs(ptr noundef %0) local_unnamed_addr #0 {
  %2 = getelementptr inbounds nuw i8, ptr %0, i64 96
  %3 = tail call i32 @pthread_mutex_lock(ptr noundef nonnull %2) #9
  %4 = getelementptr inbounds nuw i8, ptr %0, i64 80
  %5 = getelementptr inbounds nuw i8, ptr %0, i64 88
  %6 = getelementptr inbounds nuw i8, ptr %0, i64 136
  br label %7

7:                                                ; preds = %.critedge, %1
  %8 = load i32, ptr %5, align 8, !tbaa !16
  %.not = icmp eq i32 %8, 0
  br i1 %.not, label %.critedge, label %9

9:                                                ; preds = %7
  %10 = load i64, ptr %4, align 8, !tbaa !15
  %.not6 = icmp eq i64 %10, 0
  br i1 %.not6, label %12, label %.critedge

.critedge:                                        ; preds = %7, %9
  %11 = tail call i32 @pthread_cond_wait(ptr noundef nonnull %6, ptr noundef nonnull %2) #9
  br label %7, !llvm.loop !30

12:                                               ; preds = %9
  %13 = tail call i32 @pthread_mutex_unlock(ptr noundef nonnull %2) #9
  ret void
}